target datalayout = "e-m:e-p270:32:32-p271:32:32-p272:64:64-i64:64-i128:128-f80:128-n8:16:32:64-S128"
target triple = "x86_64-pc-linux-gnu"

%struct.strbuf = type { i64, i64, ptr }
%struct.stat = type { i64, i64, i64, i32, i32, i32, i32, i64, i64, i64, i64, %struct.timespec, %struct.timespec, %struct.timespec, [3 x i64] }
%struct.timespec = type { i64, i64 }

@strbuf_slopbuf = external global [0 x i8], align 1
@__const.get_repo_path.path = private unnamed_addr constant %struct.strbuf { i64 0, i64 0, ptr @strbuf_slopbuf }, align 8
@get_repo_path_1.suffix = internal global [4 x ptr] [ptr @.str.168, ptr @.str.166, ptr @.str.169, ptr @.str.170], align 16
@get_repo_path_1.bundle_suffix = internal global [2 x ptr] [ptr @.str.171, ptr @.str.166], align 16
@.str.172 = private unnamed_addr constant [9 x i8] c"gitdir: \00", align 1
@.str.178 = private unnamed_addr constant [11 x i8] c"./strbuf.h\00", align 1
@.str.179 = private unnamed_addr constant [30 x i8] c"strbuf_setlen() beyond buffer\00", align 1

; Function Attrs: inlinehint nounwind uwtable
define internal void @strbuf_setlen(ptr noundef %0, i64 noundef %1) #4 {
  %3 = alloca ptr, align 8
  %4 = alloca i64, align 8
  store ptr %0, ptr %3, align 8, !tbaa !86
  store i64 %1, ptr %4, align 8, !tbaa !88
  %5 = load i64, ptr %4, align 8, !tbaa !88
  %6 = load ptr, ptr %3, align 8, !tbaa !86
  %7 = getelementptr inbounds nuw %struct.strbuf, ptr %6, i32 0, i32 0
  %8 = load i64, ptr %7, align 8, !tbaa !89
  %9 = icmp ne i64 %8, 0
  br i1 %9, label %10, label %15

10:                                               ; preds = %2
  %11 = load ptr, ptr %3, align 8, !tbaa !86
  %12 = getelementptr inbounds nuw %struct.strbuf, ptr %11, i32 0, i32 0
  %13 = load i64, ptr %12, align 8, !tbaa !89
  %14 = sub i64 %13, 1
  br label %16

15:                                               ; preds = %2
  br label %16

16:                                               ; preds = %15, %10
  %17 = phi i64 [ %14, %10 ], [ 0, %15 ]
  %18 = icmp ugt i64 %5, %17
  br i1 %18, label %19, label %20

19:                                               ; preds = %16
  call void (ptr, i32, ptr, ...) @BUG_fl(ptr noundef @.str.178, i32 noundef 167, ptr noundef @.str.179) #14
  unreachable

20:                                               ; preds = %16
  %21 = load i64, ptr %4, align 8, !tbaa !88
  %22 = load ptr, ptr %3, align 8, !tbaa !86
  %23 = getelementptr inbounds nuw %struct.strbuf, ptr %22, i32 0, i32 1
  store i64 %21, ptr %23, align 8, !tbaa !90
  %24 = load ptr, ptr %3, align 8, !tbaa !86
  %25 = getelementptr inbounds nuw %struct.strbuf, ptr %24, i32 0, i32 2
  %26 = load ptr, ptr %25, align 8, !tbaa !49
  %27 = icmp ne ptr %26, @strbuf_slopbuf
  br i1 %27, label %28, label %34

28:                                               ; preds = %20
  %29 = load ptr, ptr %3, align 8, !tbaa !86
  %30 = getelementptr inbounds nuw %struct.strbuf, ptr %29, i32 0, i32 2
  %31 = load ptr, ptr %30, align 8, !tbaa !49
  %32 = load i64, ptr %4, align 8, !tbaa !88
  %33 = getelementptr inbounds nuw i8, ptr %31, i64 %32
  store i8 0, ptr %33, align 1, !tbaa !83
  br label %35

34:                                               ; preds = %20
  br label %35

35:                                               ; preds = %34, %28
  ret void
}

; Function Attrs: nounwind uwtable
define internal ptr @get_repo_path_1(ptr noundef %0, ptr noundef %1) #0 {
  %3 = alloca ptr, align 8
  %4 = alloca ptr, align 8
  %5 = alloca ptr, align 8
  %6 = alloca i64, align 8
  %7 = alloca %struct.stat, align 8
  %8 = alloca i32, align 4
  %9 = alloca i32, align 4
  %10 = alloca [8 x i8], align 1
  %11 = alloca ptr, align 8
  %12 = alloca i32, align 4
  %13 = alloca i32, align 4
  store ptr %0, ptr %4, align 8, !tbaa !86
  store ptr %1, ptr %5, align 8, !tbaa !84
  call void @llvm.lifetime.start.p0(i64 8, ptr %6) #13
  %14 = load ptr, ptr %4, align 8, !tbaa !86
  %15 = getelementptr inbounds nuw %struct.strbuf, ptr %14, i32 0, i32 1
  %16 = load i64, ptr %15, align 8, !tbaa !90
  store i64 %16, ptr %6, align 8, !tbaa !88
  call void @llvm.lifetime.start.p0(i64 144, ptr %7) #13
  call void @llvm.lifetime.start.p0(i64 4, ptr %8) #13
  store i32 0, ptr %8, align 4, !tbaa !4
  br label %17

17:                                               ; preds = %98, %2
  %18 = load i32, ptr %8, align 4, !tbaa !4
  %19 = sext i32 %18 to i64
  %20 = icmp ult i64 %19, 4
  br i1 %20, label %21, label %101

21:                                               ; preds = %17
  %22 = load ptr, ptr %4, align 8, !tbaa !86
  %23 = load i64, ptr %6, align 8, !tbaa !88
  call void @strbuf_setlen(ptr noundef %22, i64 noundef %23)
  %24 = load ptr, ptr %4, align 8, !tbaa !86
  %25 = load i32, ptr %8, align 4, !tbaa !4
  %26 = sext i32 %25 to i64
  %27 = getelementptr inbounds [4 x ptr], ptr @get_repo_path_1.suffix, i64 0, i64 %26
  %28 = load ptr, ptr %27, align 8, !tbaa !11
  call void @strbuf_addstr(ptr noundef %24, ptr noundef %28)
  %29 = load ptr, ptr %4, align 8, !tbaa !86
  %30 = getelementptr inbounds nuw %struct.strbuf, ptr %29, i32 0, i32 2
  %31 = load ptr, ptr %30, align 8, !tbaa !49
  %32 = call i32 @stat64(ptr noundef %31, ptr noundef %7) #13
  %33 = icmp ne i32 %32, 0
  br i1 %33, label %34, label %35

34:                                               ; preds = %21
  br label %98

35:                                               ; preds = %21
  %36 = getelementptr inbounds nuw %struct.stat, ptr %7, i32 0, i32 3
  %37 = load i32, ptr %36, align 8, !tbaa !150
  %38 = and i32 %37, 61440
  %39 = icmp eq i32 %38, 16384
  br i1 %39, label %40, label %51

40:                                               ; preds = %35
  %41 = load ptr, ptr %4, align 8, !tbaa !86
  %42 = getelementptr inbounds nuw %struct.strbuf, ptr %41, i32 0, i32 2
  %43 = load ptr, ptr %42, align 8, !tbaa !49
  %44 = call i32 @is_git_directory(ptr noundef %43)
  %45 = icmp ne i32 %44, 0
  br i1 %45, label %46, label %51

46:                                               ; preds = %40
  %47 = load ptr, ptr %5, align 8, !tbaa !84
  store i32 0, ptr %47, align 4, !tbaa !4
  %48 = load ptr, ptr %4, align 8, !tbaa !86
  %49 = getelementptr inbounds nuw %struct.strbuf, ptr %48, i32 0, i32 2
  %50 = load ptr, ptr %49, align 8, !tbaa !49
  store ptr %50, ptr %3, align 8
  store i32 1, ptr %9, align 4
  br label %134

51:                                               ; preds = %40, %35
  %52 = getelementptr inbounds nuw %struct.stat, ptr %7, i32 0, i32 3
  %53 = load i32, ptr %52, align 8, !tbaa !150
  %54 = and i32 %53, 61440
  %55 = icmp eq i32 %54, 32768
  br i1 %55, label %56, label %96

56:                                               ; preds = %51
  %57 = getelementptr inbounds nuw %struct.stat, ptr %7, i32 0, i32 8
  %58 = load i64, ptr %57, align 8, !tbaa !153
  %59 = icmp sgt i64 %58, 8
  br i1 %59, label %60, label %96

60:                                               ; preds = %56
  call void @llvm.lifetime.start.p0(i64 8, ptr %10) #13
  call void @llvm.lifetime.start.p0(i64 8, ptr %11) #13
  call void @llvm.lifetime.start.p0(i64 4, ptr %12) #13
  call void @llvm.lifetime.start.p0(i64 4, ptr %13) #13
  %61 = load ptr, ptr %4, align 8, !tbaa !86
  %62 = getelementptr inbounds nuw %struct.strbuf, ptr %61, i32 0, i32 2
  %63 = load ptr, ptr %62, align 8, !tbaa !49
  %64 = call i32 (ptr, i32, ...) @open64(ptr noundef %63, i32 noundef 0)
  store i32 %64, ptr %13, align 4, !tbaa !4
  %65 = load i32, ptr %13, align 4, !tbaa !4
  %66 = icmp slt i32 %65, 0
  br i1 %66, label %67, label %68

67:                                               ; preds = %60
  store i32 4, ptr %9, align 4
  br label %93

68:                                               ; preds = %60
  %69 = load i32, ptr %13, align 4, !tbaa !4
  %70 = getelementptr inbounds [8 x i8], ptr %10, i64 0, i64 0
  %71 = call i64 @read_in_full(i32 noundef %69, ptr noundef %70, i64 noundef 8)
  %72 = trunc i64 %71 to i32
  store i32 %72, ptr %12, align 4, !tbaa !4
  %73 = load i32, ptr %13, align 4, !tbaa !4
  %74 = call i32 @close(i32 noundef %73)
  %75 = load i32, ptr %12, align 4, !tbaa !4
  %76 = icmp ne i32 %75, 8
  br i1 %76, label %81, label %77

77:                                               ; preds = %68
  %78 = getelementptr inbounds [8 x i8], ptr %10, i64 0, i64 0
  %79 = call i32 @strncmp(ptr noundef %78, ptr noundef @.str.172, i64 noundef 8) #15
  %80 = icmp ne i32 %79, 0
  br i1 %80, label %81, label %82

81:                                               ; preds = %77, %68
  store i32 4, ptr %9, align 4
  br label %93

82:                                               ; preds = %77
  %83 = load ptr, ptr %4, align 8, !tbaa !86
  %84 = getelementptr inbounds nuw %struct.strbuf, ptr %83, i32 0, i32 2
  %85 = load ptr, ptr %84, align 8, !tbaa !49
  %86 = call ptr @read_gitfile_gently(ptr noundef %85, ptr noundef null)
  store ptr %86, ptr %11, align 8, !tbaa !11
  %87 = load ptr, ptr %11, align 8, !tbaa !11
  %88 = icmp ne ptr %87, null
  br i1 %88, label %89, label %92

89:                                               ; preds = %82
  %90 = load ptr, ptr %5, align 8, !tbaa !84
  store i32 0, ptr %90, align 4, !tbaa !4
  %91 = load ptr, ptr %11, align 8, !tbaa !11
  store ptr %91, ptr %3, align 8
  store i32 1, ptr %9, align 4
  br label %93

92:                                               ; preds = %82
  store i32 0, ptr %9, align 4
  br label %93

93:                                               ; preds = %92, %89, %81, %67
  call void @llvm.lifetime.end.p0(i64 4, ptr %13) #13
  call void @llvm.lifetime.end.p0(i64 4, ptr %12) #13
  call void @llvm.lifetime.end.p0(i64 8, ptr %11) #13
  call void @llvm.lifetime.end.p0(i64 8, ptr %10) #13
  %94 = load i32, ptr %9, align 4
  switch i32 %94, label %134 [
    i32 0, label %95
    i32 4, label %98
  ]

95:                                               ; preds = %93
  br label %96

96:                                               ; preds = %95, %56, %51
  br label %97

97:                                               ; preds = %96
  br label %98

98:                                               ; preds = %97, %93, %34
  %99 = load i32, ptr %8, align 4, !tbaa !4
  %100 = add nsw i32 %99, 1
  store i32 %100, ptr %8, align 4, !tbaa !4
  br label %17, !llvm.loop !154

101:                                              ; preds = %17
  store i32 0, ptr %8, align 4, !tbaa !4
  br label %102

102:                                              ; preds = %130, %101
  %103 = load i32, ptr %8, align 4, !tbaa !4
  %104 = sext i32 %103 to i64
  %105 = icmp ult i64 %104, 2
  br i1 %105, label %106, label %133

106:                                              ; preds = %102
  %107 = load ptr, ptr %4, align 8, !tbaa !86
  %108 = load i64, ptr %6, align 8, !tbaa !88
  call void @strbuf_setlen(ptr noundef %107, i64 noundef %108)
  %109 = load ptr, ptr %4, align 8, !tbaa !86
  %110 = load i32, ptr %8, align 4, !tbaa !4
  %111 = sext i32 %110 to i64
  %112 = getelementptr inbounds [2 x ptr], ptr @get_repo_path_1.bundle_suffix, i64 0, i64 %111
  %113 = load ptr, ptr %112, align 8, !tbaa !11
  call void @strbuf_addstr(ptr noundef %109, ptr noundef %113)
  %114 = load ptr, ptr %4, align 8, !tbaa !86
  %115 = getelementptr inbounds nuw %struct.strbuf, ptr %114, i32 0, i32 2
  %116 = load ptr, ptr %115, align 8, !tbaa !49
  %117 = call i32 @stat64(ptr noundef %116, ptr noundef %7) #13
  %118 = icmp ne i32 %117, 0
  br i1 %118, label %129, label %119

119:                                              ; preds = %106
  %120 = getelementptr inbounds nuw %struct.stat, ptr %7, i32 0, i32 3
  %121 = load i32, ptr %120, align 8, !tbaa !150
  %122 = and i32 %121, 61440
  %123 = icmp eq i32 %122, 32768
  br i1 %123, label %124, label %129

124:                                              ; preds = %119
  %125 = load ptr, ptr %5, align 8, !tbaa !84
  store i32 1, ptr %125, align 4, !tbaa !4
  %126 = load ptr, ptr %4, align 8, !tbaa !86
  %127 = getelementptr inbounds nuw %struct.strbuf, ptr %126, i32 0, i32 2
  %128 = load ptr, ptr %127, align 8, !tbaa !49
  store ptr %128, ptr %3, align 8
  store i32 1, ptr %9, align 4
  br label %134

129:                                              ; preds = %119, %106
  br label %130

130:                                              ; preds = %129
  %131 = load i32, ptr %8, align 4, !tbaa !4
  %132 = add nsw i32 %131, 1
  store i32 %132, ptr %8, align 4, !tbaa !4
  br label %102, !llvm.loop !155

133:                                              ; preds = %102
  store ptr null, ptr %3, align 8
  store i32 1, ptr %9, align 4
  br label %134

134:                                              ; preds = %133, %124, %93, %46
  call void @llvm.lifetime.end.p0(i64 4, ptr %8) #13
  call void @llvm.lifetime.end.p0(i64 144, ptr %7) #13
  call void @llvm.lifetime.end.p0(i64 8, ptr %6) #13
  %135 = load ptr, ptr %3, align 8
  ret ptr %135
}

; Function Attrs: inlinehint nounwind uwtable
define internal void @strbuf_addstr(ptr noundef %0, ptr noundef %1) #4 {
  %3 = alloca ptr, align 8
  %4 = alloca ptr, align 8
  store ptr %0, ptr %3, align 8, !tbaa !86
  store ptr %1, ptr %4, align 8, !tbaa !11
  %5 = load ptr, ptr %3, align 8, !tbaa !86
  %6 = load ptr, ptr %4, align 8, !tbaa !11
  %7 = load ptr, ptr %4, align 8, !tbaa !11
  %8 = call i64 @strlen(ptr noundef %7) #15
  call void @strbuf_add(ptr noundef %5, ptr noundef %6, i64 noundef %8)
  ret void
}

; Function Attrs: nounwind uwtable
define internal ptr @get_repo_path(ptr noundef %0, ptr noundef %1) #0 {
  %3 = alloca ptr, align 8
  %4 = alloca ptr, align 8
  %5 = alloca %struct.strbuf, align 8
  %6 = alloca ptr, align 8
  %7 = alloca ptr, align 8
  store ptr %0, ptr %3, align 8, !tbaa !11
  store ptr %1, ptr %4, align 8, !tbaa !84
  call void @llvm.lifetime.start.p0(i64 24, ptr %5) #13
  call void @llvm.memcpy.p0.p0.i64(ptr align 8 %5, ptr align 8 @__const.get_repo_path.path, i64 24, i1 false)
  call void @llvm.lifetime.start.p0(i64 8, ptr %6) #13
  call void @llvm.lifetime.start.p0(i64 8, ptr %7) #13
  %8 = load ptr, ptr %3, align 8, !tbaa !11
  call void @strbuf_addstr(ptr noundef %5, ptr noundef %8)
  %9 = load ptr, ptr %4, align 8, !tbaa !84
  %10 = call ptr @get_repo_path_1(ptr noundef %5, ptr noundef %9)
  store ptr %10, ptr %6, align 8, !tbaa !11
  %11 = load ptr, ptr %6, align 8, !tbaa !11
  %12 = icmp ne ptr %11, null
  br i1 %12, label %13, label %16

13:                                               ; preds = %2
  %14 = load ptr, ptr %6, align 8, !tbaa !11
  %15 = call ptr @absolute_pathdup(ptr noundef %14)
  br label %17

16:                                               ; preds = %2
  br label %17

17:                                               ; preds = %16, %13
  %18 = phi ptr [ %15, %13 ], [ null, %16 ]
  store ptr %18, ptr %7, align 8, !tbaa !11
  call void @strbuf_release(ptr noundef %5)
  %19 = load ptr, ptr %7, align 8, !tbaa !11
  call void @llvm.lifetime.end.p0(i64 8, ptr %7) #13
  call void @llvm.lifetime.end.p0(i64 8, ptr %6) #13
  call void @llvm.lifetime.end.p0(i64 24, ptr %5) #13
  ret ptr %19
}