; Function Attrs: nounwind uwtable
define internal fastcc ptr @get_repo_path(ptr noundef %0, ptr noundef nonnull writeonly captures(none) %1) unnamed_addr #0 {
  %3 = alloca %struct.stat, align 8
  %4 = alloca [8 x i8], align 1
  %5 = alloca %struct.strbuf, align 8
  call void @llvm.lifetime.start.p0(i64 24, ptr nonnull %5) #20
  call void @llvm.memcpy.p0.p0.i64(ptr noundef nonnull align 8 dereferenceable(24) %5, ptr noundef nonnull align 8 dereferenceable(24) @__const.git_pathdup.path, i64 24, i1 false)
  %6 = tail call i64 @strlen(ptr noundef nonnull dereferenceable(1) %0) #22
  call void @strbuf_add(ptr noundef nonnull %5, ptr noundef nonnull %0, i64 noundef %6) #20
  %7 = getelementptr inbounds nuw i8, ptr %5, i64 8
  %8 = load i64, ptr %7, align 8, !tbaa !42
  call void @llvm.lifetime.start.p0(i64 144, ptr nonnull %3) #20
  %9 = getelementptr inbounds nuw i8, ptr %5, i64 16
  %10 = getelementptr inbounds nuw i8, ptr %3, i64 24
  %11 = getelementptr inbounds nuw i8, ptr %3, i64 48
  br label %12

12:                                               ; preds = %.thread.i, %2
  %indvars.iv.i = phi i64 [ 0, %2 ], [ %indvars.iv.next.i, %.thread.i ]
  %13 = load i64, ptr %5, align 8, !tbaa !87
  %spec.select.i.i = call i64 @llvm.usub.sat.i64(i64 %13, i64 1)
  %14 = icmp ugt i64 %8, %spec.select.i.i
  br i1 %14, label %15, label %16

15:                                               ; preds = %12
  call void (ptr, i32, ptr, ...) @BUG_fl(ptr noundef nonnull @.str.178, i32 noundef 167, ptr noundef nonnull @.str.179) #21
  unreachable

16:                                               ; preds = %12
  store i64 %8, ptr %7, align 8, !tbaa !42
  %17 = load ptr, ptr %9, align 8, !tbaa !40
  %.not9.i.i = icmp eq ptr %17, @strbuf_slopbuf
  br i1 %.not9.i.i, label %strbuf_setlen.exit.i, label %18

18:                                               ; preds = %16
  %19 = getelementptr inbounds nuw i8, ptr %17, i64 %8
  store i8 0, ptr %19, align 1, !tbaa !43
  br label %strbuf_setlen.exit.i

strbuf_setlen.exit.i:                             ; preds = %18, %16
  %20 = getelementptr inbounds nuw [4 x ptr], ptr @get_repo_path_1.suffix, i64 0, i64 %indvars.iv.i
  %21 = load ptr, ptr %20, align 8, !tbaa !11
  %22 = call i64 @strlen(ptr noundef nonnull dereferenceable(1) %21) #22
  call void @strbuf_add(ptr noundef nonnull %5, ptr noundef nonnull %21, i64 noundef %22) #20
  %23 = load ptr, ptr %9, align 8, !tbaa !40
  %24 = call i32 @stat64(ptr noundef %23, ptr noundef nonnull %3) #20
  %.not39.i = icmp eq i32 %24, 0
  br i1 %.not39.i, label %25, label %.thread.i

25:                                               ; preds = %strbuf_setlen.exit.i
  %26 = load i32, ptr %10, align 8, !tbaa !84
  %27 = and i32 %26, 61440
  %28 = icmp eq i32 %27, 16384
  br i1 %28, label %29, label %32

29:                                               ; preds = %25
  %30 = load ptr, ptr %9, align 8, !tbaa !40
  %31 = call i32 @is_git_directory(ptr noundef %30) #20
  %.not40.i = icmp eq i32 %31, 0
  br i1 %.not40.i, label %.thread.i, label %get_repo_path_1.exit

32:                                               ; preds = %25
  %33 = icmp eq i32 %27, 32768
  %34 = load i64, ptr %11, align 8
  %35 = icmp sgt i64 %34, 8
  %or.cond.i = select i1 %33, i1 %35, i1 false
  br i1 %or.cond.i, label %36, label %.thread.i

36:                                               ; preds = %32
  call void @llvm.lifetime.start.p0(i64 8, ptr nonnull %4) #20
  %37 = load ptr, ptr %9, align 8, !tbaa !40
  %38 = call i32 (ptr, i32, ...) @open64(ptr noundef %37, i32 noundef 0) #20
  %39 = icmp slt i32 %38, 0
  br i1 %39, label %.thread48.i, label %40

40:                                               ; preds = %36
  %41 = call i64 @read_in_full(i32 noundef %38, ptr noundef nonnull %4, i64 noundef 8) #20
  %42 = call i32 @close(i32 noundef %38) #20
  %43 = and i64 %41, 4294967295
  %.not41.i = icmp eq i64 %43, 8
  br i1 %.not41.i, label %44, label %.thread48.i

44:                                               ; preds = %40
  %bcmp.i = call i32 @bcmp(ptr noundef nonnull dereferenceable(8) %4, ptr noundef nonnull dereferenceable(8) @.str.172, i64 8)
  %.not42.i = icmp eq i32 %bcmp.i, 0
  br i1 %.not42.i, label %45, label %.thread48.i

45:                                               ; preds = %44
  %46 = load ptr, ptr %9, align 8, !tbaa !40
  %47 = call ptr @read_gitfile_gently(ptr noundef %46, ptr noundef null) #20
  %.not43.i = icmp eq ptr %47, null
  br i1 %.not43.i, label %.thread48.i, label %get_repo_path_1.exit.thread7

.thread48.i:                                      ; preds = %45, %44, %40, %36
  call void @llvm.lifetime.end.p0(i64 8, ptr nonnull %4) #20
  br label %.thread.i

get_repo_path_1.exit.thread7:                     ; preds = %45
  store i32 0, ptr %1, align 4, !tbaa !4
  call void @llvm.lifetime.end.p0(i64 8, ptr nonnull %4) #20
  call void @llvm.lifetime.end.p0(i64 144, ptr nonnull %3) #20
  br label %67

.thread.i:                                        ; preds = %.thread48.i, %32, %29, %strbuf_setlen.exit.i
  %indvars.iv.next.i = add nuw nsw i64 %indvars.iv.i, 1
  %exitcond.not.i = icmp eq i64 %indvars.iv.next.i, 4
  br i1 %exitcond.not.i, label %.preheader.i, label %12, !llvm.loop !139

.preheader.i:                                     ; preds = %.thread.i, %65
  %48 = phi i1 [ false, %65 ], [ true, %.thread.i ]
  %indvars.iv57.i = phi i64 [ 1, %65 ], [ 0, %.thread.i ]
  %49 = load i64, ptr %5, align 8, !tbaa !87
  %spec.select.i44.i = call i64 @llvm.usub.sat.i64(i64 %49, i64 1)
  %50 = icmp ugt i64 %8, %spec.select.i44.i
  br i1 %50, label %51, label %52

51:                                               ; preds = %.preheader.i
  call void (ptr, i32, ptr, ...) @BUG_fl(ptr noundef nonnull @.str.178, i32 noundef 167, ptr noundef nonnull @.str.179) #21
  unreachable

52:                                               ; preds = %.preheader.i
  store i64 %8, ptr %7, align 8, !tbaa !42
  %53 = load ptr, ptr %9, align 8, !tbaa !40
  %.not9.i45.i = icmp eq ptr %53, @strbuf_slopbuf
  br i1 %.not9.i45.i, label %strbuf_setlen.exit46.i, label %54

54:                                               ; preds = %52
  %55 = getelementptr inbounds nuw i8, ptr %53, i64 %8
  store i8 0, ptr %55, align 1, !tbaa !43
  br label %strbuf_setlen.exit46.i

strbuf_setlen.exit46.i:                           ; preds = %54, %52
  %56 = getelementptr inbounds nuw [2 x ptr], ptr @get_repo_path_1.bundle_suffix, i64 0, i64 %indvars.iv57.i
  %57 = load ptr, ptr %56, align 8, !tbaa !11
  %58 = call i64 @strlen(ptr noundef nonnull dereferenceable(1) %57) #22
  call void @strbuf_add(ptr noundef nonnull %5, ptr noundef nonnull %57, i64 noundef %58) #20
  %59 = load ptr, ptr %9, align 8, !tbaa !40
  %60 = call i32 @stat64(ptr noundef %59, ptr noundef nonnull %3) #20
  %.not.i = icmp eq i32 %60, 0
  br i1 %.not.i, label %61, label %65

61:                                               ; preds = %strbuf_setlen.exit46.i
  %62 = load i32, ptr %10, align 8, !tbaa !84
  %63 = and i32 %62, 61440
  %64 = icmp eq i32 %63, 32768
  br i1 %64, label %get_repo_path_1.exit, label %65

65:                                               ; preds = %61, %strbuf_setlen.exit46.i
  br i1 %48, label %.preheader.i, label %get_repo_path_1.exit.thread, !llvm.loop !140

get_repo_path_1.exit.thread:                      ; preds = %65
  call void @llvm.lifetime.end.p0(i64 144, ptr nonnull %3) #20
  br label %69

get_repo_path_1.exit:                             ; preds = %29, %61
  %.sink = phi i32 [ 1, %61 ], [ 0, %29 ]
  store i32 %.sink, ptr %1, align 4, !tbaa !4
  %66 = load ptr, ptr %9, align 8, !tbaa !40
  call void @llvm.lifetime.end.p0(i64 144, ptr nonnull %3) #20
  %.not = icmp eq ptr %66, null
  br i1 %.not, label %69, label %67

67:                                               ; preds = %get_repo_path_1.exit.thread7, %get_repo_path_1.exit
  %.2.i10 = phi ptr [ %47, %get_repo_path_1.exit.thread7 ], [ %66, %get_repo_path_1.exit ]
  %68 = call ptr @absolute_pathdup(ptr noundef nonnull %.2.i10) #20
  br label %69

69:                                               ; preds = %get_repo_path_1.exit.thread, %get_repo_path_1.exit, %67
  %70 = phi ptr [ %68, %67 ], [ null, %get_repo_path_1.exit ], [ null, %get_repo_path_1.exit.thread ]
  call void @strbuf_release(ptr noundef nonnull %5) #20
  call void @llvm.lifetime.end.p0(i64 24, ptr nonnull %5) #20
  ret ptr %70
}